target datalayout = "e-m:e-p270:32:32-p271:32:32-p272:64:64-i64:64-i128:128-f80:128-n8:16:32:64-S128"
target triple = "x86_64-unknown-linux-gnu"

%"class.QuantLib::AlphaFinder" = type { %"class.boost::shared_ptr", i32, %"class.std::vector", %"class.std::vector", %"class.std::vector", %"class.std::vector", double, double, double, double, double, double, double }
%"class.boost::shared_ptr" = type { ptr, %"class.boost::detail::shared_count" }
%"class.boost::detail::shared_count" = type { ptr }
%"class.std::vector" = type { %"struct.std::_Vector_base" }
%"struct.std::_Vector_base" = type { %"struct.std::_Vector_base<double, std::allocator<double>>::_Vector_impl" }
%"struct.std::_Vector_base<double, std::allocator<double>>::_Vector_impl" = type { %"struct.std::_Vector_base<double, std::allocator<double>>::_Vector_impl_data" }
%"struct.std::_Vector_base<double, std::allocator<double>>::_Vector_impl_data" = type { ptr, ptr, ptr }

@.str = private unnamed_addr constant [8 x i8] c"px != 0\00", align 1
@__PRETTY_FUNCTION__._ZNK5boost10shared_ptrIN8QuantLib9AlphaFormEEptEv = private unnamed_addr constant [135 x i8] c"typename boost::detail::sp_member_access<T>::type boost::shared_ptr<QuantLib::AlphaForm>::operator->() const [T = QuantLib::AlphaForm]\00", align 1
@.str.1 = private unnamed_addr constant [102 x i8] c"generated/home/dtcxzyw/WorkSpace/SDK/vcpkg/installed/x64-linux/include/boost/smart_ptr/shared_ptr.hpp\00", align 1
@__PRETTY_FUNCTION__._ZNK5boost10shared_ptrIN8QuantLib9AlphaFormEEdeEv = private unnamed_addr constant [132 x i8] c"typename boost::detail::sp_dereference<T>::type boost::shared_ptr<QuantLib::AlphaForm>::operator*() const [T = QuantLib::AlphaForm]\00", align 1

; Function Attrs: mustprogress uwtable
define linkonce_odr noundef nonnull align 8 dereferenceable(8) ptr @_ZNK5boost10shared_ptrIN8QuantLib9AlphaFormEEdeEv(ptr noundef nonnull align 8 dereferenceable(16) %this) #1 comdat align 2 {
entry:
  %this.addr = alloca ptr, align 8
  store ptr %this, ptr %this.addr, align 8, !tbaa !3
  %this1 = load ptr, ptr %this.addr, align 8
  %px = getelementptr inbounds nuw %"class.boost::shared_ptr", ptr %this1, i32 0, i32 0
  %0 = load ptr, ptr %px, align 8, !tbaa !7
  %cmp = icmp ne ptr %0, null
  %lnot = xor i1 %cmp, true
  %lnot2 = xor i1 %lnot, true
  %conv = zext i1 %lnot2 to i64
  %expval = call i64 @llvm.expect.i64(i64 %conv, i64 1)
  %tobool = icmp ne i64 %expval, 0
  br i1 %tobool, label %cond.true, label %cond.false

cond.true:                                        ; preds = %entry
  br label %cond.end

cond.false:                                       ; preds = %entry
  call void @_ZN5boost16assertion_failedEPKcS1_S1_l(ptr noundef @.str, ptr noundef @__PRETTY_FUNCTION__._ZNK5boost10shared_ptrIN8QuantLib9AlphaFormEEdeEv, ptr noundef @.str.1, i64 noundef 778)
  br label %cond.end

cond.end:                                         ; preds = %cond.false, %cond.true
  %px3 = getelementptr inbounds nuw %"class.boost::shared_ptr", ptr %this1, i32 0, i32 0
  %1 = load ptr, ptr %px3, align 8, !tbaa !7
  ret ptr %1
}

; Function Attrs: mustprogress uwtable
define linkonce_odr noundef ptr @_ZNK5boost10shared_ptrIN8QuantLib9AlphaFormEEptEv(ptr noundef nonnull align 8 dereferenceable(16) %this) #1 comdat align 2 {
entry:
  %this.addr = alloca ptr, align 8
  store ptr %this, ptr %this.addr, align 8, !tbaa !3
  %this1 = load ptr, ptr %this.addr, align 8
  %px = getelementptr inbounds nuw %"class.boost::shared_ptr", ptr %this1, i32 0, i32 0
  %0 = load ptr, ptr %px, align 8, !tbaa !7
  %cmp = icmp ne ptr %0, null
  %lnot = xor i1 %cmp, true
  %lnot2 = xor i1 %lnot, true
  %conv = zext i1 %lnot2 to i64
  %expval = call i64 @llvm.expect.i64(i64 %conv, i64 1)
  %tobool = icmp ne i64 %expval, 0
  br i1 %tobool, label %cond.true, label %cond.false

cond.true:                                        ; preds = %entry
  br label %cond.end

cond.false:                                       ; preds = %entry
  call void @_ZN5boost16assertion_failedEPKcS1_S1_l(ptr noundef @.str, ptr noundef @__PRETTY_FUNCTION__._ZNK5boost10shared_ptrIN8QuantLib9AlphaFormEEptEv, ptr noundef @.str.1, i64 noundef 784)
  br label %cond.end

cond.end:                                         ; preds = %cond.false, %cond.true
  %px3 = getelementptr inbounds nuw %"class.boost::shared_ptr", ptr %this1, i32 0, i32 0
  %1 = load ptr, ptr %px3, align 8, !tbaa !7
  ret ptr %1
}

; Function Attrs: mustprogress nounwind uwtable
define linkonce_odr noundef nonnull align 8 dereferenceable(8) ptr @_ZNSt6vectorIdSaIdEEixEm(ptr noundef nonnull align 8 dereferenceable(24) %this, i64 noundef %__n) #0 comdat align 2 {
entry:
  %this.addr = alloca ptr, align 8
  %__n.addr = alloca i64, align 8
  store ptr %this, ptr %this.addr, align 8, !tbaa !3
  store i64 %__n, ptr %__n.addr, align 8, !tbaa !26
  %this1 = load ptr, ptr %this.addr, align 8
  %_M_impl = getelementptr inbounds nuw %"struct.std::_Vector_base", ptr %this1, i32 0, i32 0
  %_M_start = getelementptr inbounds nuw %"struct.std::_Vector_base<double, std::allocator<double>>::_Vector_impl_data", ptr %_M_impl, i32 0, i32 0
  %0 = load ptr, ptr %_M_start, align 8, !tbaa !28
  %1 = load i64, ptr %__n.addr, align 8, !tbaa !26
  %add.ptr = getelementptr inbounds nuw double, ptr %0, i64 %1
  ret ptr %add.ptr
}

; Function Attrs: mustprogress uwtable
define noundef double @_ZN8QuantLib11AlphaFinder20computeQuadraticPartEd(ptr noundef nonnull align 8 dereferenceable(176) %this, double noundef %alpha) #1 align 2 {
entry:
  %this.addr = alloca ptr, align 8
  %alpha.addr = alloca double, align 8
  %var = alloca double, align 8
  %i = alloca i32, align 4
  %vol = alloca double, align 8
  store ptr %this, ptr %this.addr, align 8, !tbaa !3
  store double %alpha, ptr %alpha.addr, align 8, !tbaa !10
  %this1 = load ptr, ptr %this.addr, align 8
  call void @llvm.lifetime.start.p0(i64 8, ptr %var) #14
  store double 0.000000e+00, ptr %var, align 8, !tbaa !10
  %parametricform_ = getelementptr inbounds nuw %"class.QuantLib::AlphaFinder", ptr %this1, i32 0, i32 0
  %call = call noundef ptr @_ZNK5boost10shared_ptrIN8QuantLib9AlphaFormEEptEv(ptr noundef nonnull align 8 dereferenceable(16) %parametricform_)
  %0 = load double, ptr %alpha.addr, align 8, !tbaa !10
  %vtable = load ptr, ptr %call, align 8, !tbaa !12
  %vfn = getelementptr inbounds ptr, ptr %vtable, i64 3
  %1 = load ptr, ptr %vfn, align 8
  call void %1(ptr noundef nonnull align 8 dereferenceable(8) %call, double noundef %0)
  call void @llvm.lifetime.start.p0(i64 4, ptr %i) #14
  store i32 0, ptr %i, align 4, !tbaa !14
  br label %for.cond

for.cond:                                         ; preds = %for.inc, %entry
  %2 = load i32, ptr %i, align 4, !tbaa !14
  %stepindex_ = getelementptr inbounds nuw %"class.QuantLib::AlphaFinder", ptr %this1, i32 0, i32 1
  %3 = load i32, ptr %stepindex_, align 8, !tbaa !16
  %add = add nsw i32 %3, 1
  %cmp = icmp slt i32 %2, %add
  br i1 %cmp, label %for.body, label %for.cond.cleanup

for.cond.cleanup:                                 ; preds = %for.cond
  call void @llvm.lifetime.end.p0(i64 4, ptr %i) #14
  br label %for.end

for.body:                                         ; preds = %for.cond
  call void @llvm.lifetime.start.p0(i64 8, ptr %vol) #14
  %ratetwohomogeneousvols_ = getelementptr inbounds nuw %"class.QuantLib::AlphaFinder", ptr %this1, i32 0, i32 3
  %4 = load i32, ptr %i, align 4, !tbaa !14
  %conv = sext i32 %4 to i64
  %call2 = call noundef nonnull align 8 dereferenceable(8) ptr @_ZNSt6vectorIdSaIdEEixEm(ptr noundef nonnull align 8 dereferenceable(24) %ratetwohomogeneousvols_, i64 noundef %conv) #14
  %5 = load double, ptr %call2, align 8, !tbaa !10
  %parametricform_3 = getelementptr inbounds nuw %"class.QuantLib::AlphaFinder", ptr %this1, i32 0, i32 0
  %call4 = call noundef nonnull align 8 dereferenceable(8) ptr @_ZNK5boost10shared_ptrIN8QuantLib9AlphaFormEEdeEv(ptr noundef nonnull align 8 dereferenceable(16) %parametricform_3)
  %6 = load i32, ptr %i, align 4, !tbaa !14
  %vtable5 = load ptr, ptr %call4, align 8, !tbaa !12
  %vfn6 = getelementptr inbounds ptr, ptr %vtable5, i64 2
  %7 = load ptr, ptr %vfn6, align 8
  %call7 = call noundef double %7(ptr noundef nonnull align 8 dereferenceable(8) %call4, i32 noundef %6)
  %mul = fmul double %5, %call7
  store double %mul, ptr %vol, align 8, !tbaa !10
  %8 = load double, ptr %vol, align 8, !tbaa !10
  %9 = load double, ptr %vol, align 8, !tbaa !10
  %10 = load double, ptr %var, align 8, !tbaa !10
  %11 = call double @llvm.fmuladd.f64(double %8, double %9, double %10)
  store double %11, ptr %var, align 8, !tbaa !10
  call void @llvm.lifetime.end.p0(i64 8, ptr %vol) #14
  br label %for.inc

for.inc:                                          ; preds = %for.body
  %12 = load i32, ptr %i, align 4, !tbaa !14
  %inc = add nsw i32 %12, 1
  store i32 %inc, ptr %i, align 4, !tbaa !14
  br label %for.cond, !llvm.loop !29

for.end:                                          ; preds = %for.cond.cleanup
  %w1_ = getelementptr inbounds nuw %"class.QuantLib::AlphaFinder", ptr %this1, i32 0, i32 7
  %13 = load double, ptr %w1_, align 8, !tbaa !25
  %w1_9 = getelementptr inbounds nuw %"class.QuantLib::AlphaFinder", ptr %this1, i32 0, i32 7
  %14 = load double, ptr %w1_9, align 8, !tbaa !25
  %mul10 = fmul double %13, %14
  %15 = load double, ptr %var, align 8, !tbaa !10
  %mul11 = fmul double %15, %mul10
  store double %mul11, ptr %var, align 8, !tbaa !10
  %16 = load double, ptr %var, align 8, !tbaa !10
  call void @llvm.lifetime.end.p0(i64 8, ptr %var) #14
  ret double %16
}

; Function Attrs: mustprogress uwtable
define noundef double @_ZN8QuantLib11AlphaFinder18homogeneityfailureEd(ptr noundef nonnull align 8 dereferenceable(176) %this, double noundef %alpha) #1 align 2 {
entry:
  %this.addr = alloca ptr, align 8
  %alpha.addr = alloca double, align 8
  %dum1 = alloca double, align 8
  %dum2 = alloca double, align 8
  %dum3 = alloca double, align 8
  %result = alloca double, align 8
  %i = alloca i64, align 8
  %val = alloca double, align 8
  store ptr %this, ptr %this.addr, align 8, !tbaa !3
  store double %alpha, ptr %alpha.addr, align 8, !tbaa !10
  %this1 = load ptr, ptr %this.addr, align 8
  call void @llvm.lifetime.start.p0(i64 8, ptr %dum1) #14
  call void @llvm.lifetime.start.p0(i64 8, ptr %dum2) #14
  call void @llvm.lifetime.start.p0(i64 8, ptr %dum3) #14
  %0 = load double, ptr %alpha.addr, align 8, !tbaa !10
  %stepindex_ = getelementptr inbounds nuw %"class.QuantLib::AlphaFinder", ptr %this1, i32 0, i32 1
  %1 = load i32, ptr %stepindex_, align 8, !tbaa !16
  %ratetwohomogeneousvols_ = getelementptr inbounds nuw %"class.QuantLib::AlphaFinder", ptr %this1, i32 0, i32 3
  %2 = load double, ptr %alpha.addr, align 8, !tbaa !10
  %call = call noundef double @_ZN8QuantLib11AlphaFinder20computeQuadraticPartEd(ptr noundef nonnull align 8 dereferenceable(176) %this1, double noundef %2)
  %3 = load double, ptr %alpha.addr, align 8, !tbaa !10
  %call2 = call noundef double @_ZN8QuantLib11AlphaFinder17computeLinearPartEd(ptr noundef nonnull align 8 dereferenceable(176) %this1, double noundef %3)
  %constantPart_ = getelementptr inbounds nuw %"class.QuantLib::AlphaFinder", ptr %this1, i32 0, i32 8
  %4 = load double, ptr %constantPart_, align 8, !tbaa !30
  %putativevols_ = getelementptr inbounds nuw %"class.QuantLib::AlphaFinder", ptr %this1, i32 0, i32 4
  %call3 = call noundef zeroext i1 @_ZN8QuantLib11AlphaFinder9finalPartEdiRKSt6vectorIdSaIdEEdddRdS6_S6_RS3_(ptr noundef nonnull align 8 dereferenceable(176) %this1, double noundef %0, i32 noundef %1, ptr noundef nonnull align 8 dereferenceable(24) %ratetwohomogeneousvols_, double noundef %call, double noundef %call2, double noundef %4, ptr noundef nonnull align 8 dereferenceable(8) %dum1, ptr noundef nonnull align 8 dereferenceable(8) %dum2, ptr noundef nonnull align 8 dereferenceable(8) %dum3, ptr noundef nonnull align 8 dereferenceable(24) %putativevols_)
  call void @llvm.lifetime.start.p0(i64 8, ptr %result) #14
  store double 0.000000e+00, ptr %result, align 8, !tbaa !10
  call void @llvm.lifetime.start.p0(i64 8, ptr %i) #14
  store i64 0, ptr %i, align 8, !tbaa !26
  br label %for.cond

for.cond:                                         ; preds = %for.inc, %entry
  %5 = load i64, ptr %i, align 8, !tbaa !26
  %stepindex_4 = getelementptr inbounds nuw %"class.QuantLib::AlphaFinder", ptr %this1, i32 0, i32 1
  %6 = load i32, ptr %stepindex_4, align 8, !tbaa !16
  %conv = sext i32 %6 to i64
  %add = add i64 %conv, 1
  %cmp = icmp ule i64 %5, %add
  br i1 %cmp, label %for.body, label %for.cond.cleanup

for.cond.cleanup:                                 ; preds = %for.cond
  call void @llvm.lifetime.end.p0(i64 8, ptr %i) #14
  br label %for.end

for.body:                                         ; preds = %for.cond
  call void @llvm.lifetime.start.p0(i64 8, ptr %val) #14
  %putativevols_5 = getelementptr inbounds nuw %"class.QuantLib::AlphaFinder", ptr %this1, i32 0, i32 4
  %7 = load i64, ptr %i, align 8, !tbaa !26
  %call6 = call noundef nonnull align 8 dereferenceable(8) ptr @_ZNSt6vectorIdSaIdEEixEm(ptr noundef nonnull align 8 dereferenceable(24) %putativevols_5, i64 noundef %7) #14
  %8 = load double, ptr %call6, align 8, !tbaa !10
  %ratetwohomogeneousvols_7 = getelementptr inbounds nuw %"class.QuantLib::AlphaFinder", ptr %this1, i32 0, i32 3
  %9 = load i64, ptr %i, align 8, !tbaa !26
  %call8 = call noundef nonnull align 8 dereferenceable(8) ptr @_ZNSt6vectorIdSaIdEEixEm(ptr noundef nonnull align 8 dereferenceable(24) %ratetwohomogeneousvols_7, i64 noundef %9) #14
  %10 = load double, ptr %call8, align 8, !tbaa !10
  %sub = fsub double %8, %10
  store double %sub, ptr %val, align 8, !tbaa !10
  %11 = load double, ptr %val, align 8, !tbaa !10
  %12 = load double, ptr %val, align 8, !tbaa !10
  %13 = load double, ptr %result, align 8, !tbaa !10
  %14 = call double @llvm.fmuladd.f64(double %11, double %12, double %13)
  store double %14, ptr %result, align 8, !tbaa !10
  call void @llvm.lifetime.end.p0(i64 8, ptr %val) #14
  br label %for.inc

for.inc:                                          ; preds = %for.body
  %15 = load i64, ptr %i, align 8, !tbaa !26
  %inc = add i64 %15, 1
  store i64 %inc, ptr %i, align 8, !tbaa !26
  br label %for.cond, !llvm.loop !31

for.end:                                          ; preds = %for.cond.cleanup
  %16 = load double, ptr %result, align 8, !tbaa !10
  call void @llvm.lifetime.end.p0(i64 8, ptr %result) #14
  call void @llvm.lifetime.end.p0(i64 8, ptr %dum3) #14
  call void @llvm.lifetime.end.p0(i64 8, ptr %dum2) #14
  call void @llvm.lifetime.end.p0(i64 8, ptr %dum1) #14
  ret double %16
}