; Function Attrs: mustprogress uwtable
define noundef double @_ZN8QuantLib11AlphaFinder18homogeneityfailureEd(ptr nocapture noundef nonnull readonly align 8 dereferenceable(176) %this, double noundef %alpha) local_unnamed_addr #1 align 2 {
entry:
  %dum1 = alloca double, align 8
  %dum2 = alloca double, align 8
  %dum3 = alloca double, align 8
  call void @llvm.lifetime.start.p0(i64 8, ptr nonnull %dum1) #14
  call void @llvm.lifetime.start.p0(i64 8, ptr nonnull %dum2) #14
  call void @llvm.lifetime.start.p0(i64 8, ptr nonnull %dum3) #14
  %stepindex_ = getelementptr inbounds nuw i8, ptr %this, i64 16
  %0 = load i32, ptr %stepindex_, align 8, !tbaa !13
  %ratetwohomogeneousvols_ = getelementptr inbounds nuw i8, ptr %this, i64 48
  %1 = load ptr, ptr %this, align 8, !tbaa !3
  %cmp.not.i.i = icmp eq ptr %1, null
  br i1 %cmp.not.i.i, label %cond.false.i.i, label %_ZNK5boost10shared_ptrIN8QuantLib9AlphaFormEEptEv.exit.i, !prof !10

cond.false.i.i:                                   ; preds = %entry
  tail call void @_ZN5boost16assertion_failedEPKcS1_S1_l(ptr noundef nonnull @.str, ptr noundef nonnull @__PRETTY_FUNCTION__._ZNK5boost10shared_ptrIN8QuantLib9AlphaFormEEptEv, ptr noundef nonnull @.str.1, i64 noundef 784)
  %.pre.i.i = load ptr, ptr %this, align 8, !tbaa !3
  br label %_ZNK5boost10shared_ptrIN8QuantLib9AlphaFormEEptEv.exit.i

_ZNK5boost10shared_ptrIN8QuantLib9AlphaFormEEptEv.exit.i: ; preds = %cond.false.i.i, %entry
  %2 = phi ptr [ %1, %entry ], [ %.pre.i.i, %cond.false.i.i ]
  %vtable.i = load ptr, ptr %2, align 8, !tbaa !11
  %vfn.i = getelementptr inbounds i8, ptr %vtable.i, i64 24
  %3 = load ptr, ptr %vfn.i, align 8
  tail call void %3(ptr noundef nonnull align 8 dereferenceable(8) %2, double noundef %alpha)
  %4 = load i32, ptr %stepindex_, align 8, !tbaa !13
  %cmp.not10.i = icmp slt i32 %4, 0
  br i1 %cmp.not10.i, label %_ZN8QuantLib11AlphaFinder20computeQuadraticPartEd.exit, label %for.body.i

for.body.i:                                       ; preds = %_ZNK5boost10shared_ptrIN8QuantLib9AlphaFormEEptEv.exit.i, %_ZNK5boost10shared_ptrIN8QuantLib9AlphaFormEEdeEv.exit.i
  %indvars.iv.i = phi i64 [ %indvars.iv.next.i, %_ZNK5boost10shared_ptrIN8QuantLib9AlphaFormEEdeEv.exit.i ], [ 0, %_ZNK5boost10shared_ptrIN8QuantLib9AlphaFormEEptEv.exit.i ]
  %var.012.i = phi double [ %11, %_ZNK5boost10shared_ptrIN8QuantLib9AlphaFormEEdeEv.exit.i ], [ 0.000000e+00, %_ZNK5boost10shared_ptrIN8QuantLib9AlphaFormEEptEv.exit.i ]
  %5 = load ptr, ptr %ratetwohomogeneousvols_, align 8, !tbaa !23
  %add.ptr.i.i = getelementptr inbounds nuw double, ptr %5, i64 %indvars.iv.i
  %6 = load double, ptr %add.ptr.i.i, align 8, !tbaa !24
  %7 = load ptr, ptr %this, align 8, !tbaa !3
  %cmp.not.i7.i = icmp eq ptr %7, null
  br i1 %cmp.not.i7.i, label %cond.false.i8.i, label %_ZNK5boost10shared_ptrIN8QuantLib9AlphaFormEEdeEv.exit.i, !prof !10

cond.false.i8.i:                                  ; preds = %for.body.i
  tail call void @_ZN5boost16assertion_failedEPKcS1_S1_l(ptr noundef nonnull @.str, ptr noundef nonnull @__PRETTY_FUNCTION__._ZNK5boost10shared_ptrIN8QuantLib9AlphaFormEEdeEv, ptr noundef nonnull @.str.1, i64 noundef 778)
  %.pre.i9.i = load ptr, ptr %this, align 8, !tbaa !3
  br label %_ZNK5boost10shared_ptrIN8QuantLib9AlphaFormEEdeEv.exit.i

_ZNK5boost10shared_ptrIN8QuantLib9AlphaFormEEdeEv.exit.i: ; preds = %cond.false.i8.i, %for.body.i
  %8 = phi ptr [ %7, %for.body.i ], [ %.pre.i9.i, %cond.false.i8.i ]
  %vtable5.i = load ptr, ptr %8, align 8, !tbaa !11
  %vfn6.i = getelementptr inbounds i8, ptr %vtable5.i, i64 16
  %9 = load ptr, ptr %vfn6.i, align 8
  %10 = trunc nuw nsw i64 %indvars.iv.i to i32
  %call7.i = tail call noundef double %9(ptr noundef nonnull align 8 dereferenceable(8) %8, i32 noundef %10)
  %mul.i = fmul double %6, %call7.i
  %11 = tail call double @llvm.fmuladd.f64(double %mul.i, double %mul.i, double %var.012.i)
  %indvars.iv.next.i = add nuw nsw i64 %indvars.iv.i, 1
  %12 = load i32, ptr %stepindex_, align 8, !tbaa !13
  %13 = sext i32 %12 to i64
  %cmp.not.not.i = icmp slt i64 %indvars.iv.i, %13
  br i1 %cmp.not.not.i, label %for.body.i, label %_ZN8QuantLib11AlphaFinder20computeQuadraticPartEd.exit, !llvm.loop !27

_ZN8QuantLib11AlphaFinder20computeQuadraticPartEd.exit: ; preds = %_ZNK5boost10shared_ptrIN8QuantLib9AlphaFormEEdeEv.exit.i, %_ZNK5boost10shared_ptrIN8QuantLib9AlphaFormEEptEv.exit.i
  %var.0.lcssa.i = phi double [ 0.000000e+00, %_ZNK5boost10shared_ptrIN8QuantLib9AlphaFormEEptEv.exit.i ], [ %11, %_ZNK5boost10shared_ptrIN8QuantLib9AlphaFormEEdeEv.exit.i ]
  %w1_.i = getelementptr inbounds nuw i8, ptr %this, i64 128
  %14 = load double, ptr %w1_.i, align 8, !tbaa !22
  %mul10.i = fmul double %14, %14
  %mul11.i = fmul double %var.0.lcssa.i, %mul10.i
  %call2 = tail call noundef double @_ZN8QuantLib11AlphaFinder17computeLinearPartEd(ptr noundef nonnull align 8 dereferenceable(176) %this, double noundef %alpha)
  %constantPart_ = getelementptr inbounds nuw i8, ptr %this, i64 136
  %15 = load double, ptr %constantPart_, align 8, !tbaa !28
  %putativevols_ = getelementptr inbounds nuw i8, ptr %this, i64 72
  %call3 = call noundef zeroext i1 @_ZN8QuantLib11AlphaFinder9finalPartEdiRKSt6vectorIdSaIdEEdddRdS6_S6_RS3_(ptr noundef nonnull align 8 dereferenceable(176) %this, double noundef %alpha, i32 noundef %0, ptr noundef nonnull align 8 dereferenceable(24) %ratetwohomogeneousvols_, double noundef %mul11.i, double noundef %call2, double noundef %15, ptr noundef nonnull align 8 dereferenceable(8) %dum1, ptr noundef nonnull align 8 dereferenceable(8) %dum2, ptr noundef nonnull align 8 dereferenceable(8) %dum3, ptr noundef nonnull align 8 dereferenceable(24) %putativevols_)
  %16 = load i32, ptr %stepindex_, align 8, !tbaa !13
  %conv = sext i32 %16 to i64
  %17 = load ptr, ptr %putativevols_, align 8, !tbaa !23
  %18 = load ptr, ptr %ratetwohomogeneousvols_, align 8, !tbaa !23
  %19 = add nsw i64 %conv, 2
  %umax = call i64 @llvm.umax.i64(i64 %19, i64 1)
  br label %for.body

for.cond.cleanup:                                 ; preds = %for.body
  call void @llvm.lifetime.end.p0(i64 8, ptr nonnull %dum3) #14
  call void @llvm.lifetime.end.p0(i64 8, ptr nonnull %dum2) #14
  call void @llvm.lifetime.end.p0(i64 8, ptr nonnull %dum1) #14
  ret double %22

for.body:                                         ; preds = %_ZN8QuantLib11AlphaFinder20computeQuadraticPartEd.exit, %for.body
  %result.010 = phi double [ 0.000000e+00, %_ZN8QuantLib11AlphaFinder20computeQuadraticPartEd.exit ], [ %22, %for.body ]
  %i.09 = phi i64 [ 0, %_ZN8QuantLib11AlphaFinder20computeQuadraticPartEd.exit ], [ %inc, %for.body ]
  %add.ptr.i = getelementptr inbounds nuw double, ptr %17, i64 %i.09
  %20 = load double, ptr %add.ptr.i, align 8, !tbaa !24
  %add.ptr.i8 = getelementptr inbounds nuw double, ptr %18, i64 %i.09
  %21 = load double, ptr %add.ptr.i8, align 8, !tbaa !24
  %sub = fsub double %20, %21
  %22 = call double @llvm.fmuladd.f64(double %sub, double %sub, double %result.010)
  %inc = add nuw i64 %i.09, 1
  %exitcond = icmp eq i64 %inc, %umax
  br i1 %exitcond, label %for.cond.cleanup, label %for.body, !llvm.loop !29
}